target datalayout = "e-m:e-p270:32:32-p271:32:32-p272:64:64-i64:64-i128:128-f80:128-n8:16:32:64-S128"
target triple = "x86_64-pc-linux-gnu"

%"class.std::__cxx11::basic_string" = type { %"struct.std::__cxx11::basic_string<char>::_Alloc_hider", i64, %union.anon }
%"struct.std::__cxx11::basic_string<char>::_Alloc_hider" = type { ptr }
%union.anon = type { i64, [8 x i8] }
%class.cmScriptGeneratorIndent = type { i32 }
%"class.std::__cxx11::basic_ostringstream" = type { %"class.std::basic_ostream.base", %"class.std::__cxx11::basic_stringbuf", %"class.std::basic_ios" }
%"class.std::basic_ostream.base" = type { ptr }
%"class.std::__cxx11::basic_stringbuf" = type { %"class.std::basic_streambuf", i32, %"class.std::__cxx11::basic_string" }
%"class.std::basic_streambuf" = type { ptr, ptr, ptr, ptr, ptr, ptr, ptr, %"class.std::locale" }
%"class.std::locale" = type { ptr }
%"class.std::basic_ios" = type { %"class.std::ios_base", ptr, i8, i8, ptr, ptr, ptr, ptr }
%"class.std::ios_base" = type { ptr, i64, i64, i32, i32, i32, ptr, %"struct.std::ios_base::_Words", [8 x %"struct.std::ios_base::_Words"], i32, ptr, %"class.std::locale" }
%"struct.std::ios_base::_Words" = type { ptr, i64 }
%"class.std::function.151" = type { %"class.std::_Function_base", ptr }
%"class.std::_Function_base" = type { %"union.std::_Any_data", ptr }
%"union.std::_Any_data" = type { %"union.std::_Nocopy_types" }
%"union.std::_Nocopy_types" = type { { i64, i64 } }

@.str.12 = private unnamed_addr constant [4 x i8] c"\22)\0A\00", align 1
@.str.23 = private unnamed_addr constant [9 x i8] c"endif()\0A\00", align 1
@.str.41 = private unnamed_addr constant [2 x i8] c" \00", align 1
@.str.53 = private unnamed_addr constant [12 x i8] c"if(EXISTS \22\00", align 1
@.str.54 = private unnamed_addr constant [7 x i8] c"\22 AND\0A\00", align 1
@.str.55 = private unnamed_addr constant [20 x i8] c"   NOT IS_SYMLINK \22\00", align 1

; Function Attrs: mustprogress uwtable
define linkonce_odr dso_local void @_ZNK23cmScriptGeneratorIndent5WriteERSo(ptr noundef nonnull align 4 dereferenceable(4) %0, ptr noundef nonnull align 8 dereferenceable(8) %1) #4 comdat align 2 {
  %3 = alloca ptr, align 8
  %4 = alloca ptr, align 8
  %5 = alloca i32, align 4
  store ptr %0, ptr %3, align 8
  store ptr %1, ptr %4, align 8
  %6 = load ptr, ptr %3, align 8
  store i32 0, ptr %5, align 4
  br label %7

7:                                                ; preds = %15, %2
  %8 = load i32, ptr %5, align 4
  %9 = getelementptr inbounds %class.cmScriptGeneratorIndent, ptr %6, i32 0, i32 0
  %10 = load i32, ptr %9, align 4
  %11 = icmp slt i32 %8, %10
  br i1 %11, label %12, label %18

12:                                               ; preds = %7
  %13 = load ptr, ptr %4, align 8
  %14 = call noundef nonnull align 8 dereferenceable(8) ptr @_ZStlsISt11char_traitsIcEERSt13basic_ostreamIcT_ES5_PKc(ptr noundef nonnull align 8 dereferenceable(8) %13, ptr noundef @.str.41)
  br label %15

15:                                               ; preds = %12
  %16 = load i32, ptr %5, align 4
  %17 = add nsw i32 %16, 1
  store i32 %17, ptr %5, align 4
  br label %7, !llvm.loop !5

18:                                               ; preds = %7
  ret void
}

; Function Attrs: mustprogress nounwind uwtable
define linkonce_odr dso_local noundef zeroext i1 @_ZNKSt14_Function_base8_M_emptyEv(ptr noundef nonnull align 8 dereferenceable(24) %0) #5 comdat align 2 {
  %2 = alloca ptr, align 8
  store ptr %0, ptr %2, align 8
  %3 = load ptr, ptr %2, align 8
  %4 = getelementptr inbounds %"class.std::_Function_base", ptr %3, i32 0, i32 1
  %5 = load ptr, ptr %4, align 8
  %6 = icmp ne ptr %5, null
  %7 = xor i1 %6, true
  ret i1 %7
}

; Function Attrs: mustprogress nounwind uwtable
define linkonce_odr dso_local void @_ZN23cmScriptGeneratorIndentC2Ei(ptr noundef nonnull align 4 dereferenceable(4) %0, i32 noundef %1) unnamed_addr #5 comdat align 2 {
  %3 = alloca ptr, align 8
  %4 = alloca i32, align 4
  store ptr %0, ptr %3, align 8
  store i32 %1, ptr %4, align 4
  %5 = load ptr, ptr %3, align 8
  %6 = getelementptr inbounds %class.cmScriptGeneratorIndent, ptr %5, i32 0, i32 0
  %7 = load i32, ptr %4, align 4
  store i32 %7, ptr %6, align 4
  ret void
}

; Function Attrs: mustprogress uwtable
define linkonce_odr dso_local noundef nonnull align 8 dereferenceable(8) ptr @_ZlsRSo23cmScriptGeneratorIndent(ptr noundef nonnull align 8 dereferenceable(8) %0, i32 %1) #4 comdat {
  %3 = alloca %class.cmScriptGeneratorIndent, align 4
  %4 = alloca ptr, align 8
  %5 = getelementptr inbounds %class.cmScriptGeneratorIndent, ptr %3, i32 0, i32 0
  store i32 %1, ptr %5, align 4
  store ptr %0, ptr %4, align 8
  %6 = load ptr, ptr %4, align 8
  call void @_ZNK23cmScriptGeneratorIndent5WriteERSo(ptr noundef nonnull align 4 dereferenceable(4) %3, ptr noundef nonnull align 8 dereferenceable(8) %6)
  %7 = load ptr, ptr %4, align 8
  ret ptr %7
}

; Function Attrs: mustprogress uwtable
define linkonce_odr dso_local void @_ZNKSt8functionIFvRSo23cmScriptGeneratorIndentRKNSt7__cxx1112basic_stringIcSt11char_traitsIcESaIcEEES9_EEclES0_S1_S9_S9_(ptr noundef nonnull align 8 dereferenceable(32) %0, ptr noundef nonnull align 8 dereferenceable(8) %1, i32 %2, ptr noundef nonnull align 8 dereferenceable(32) %3, ptr noundef nonnull align 8 dereferenceable(32) %4) #4 comdat align 2 {
  %6 = alloca %class.cmScriptGeneratorIndent, align 4
  %7 = alloca ptr, align 8
  %8 = alloca ptr, align 8
  %9 = alloca ptr, align 8
  %10 = alloca ptr, align 8
  %11 = getelementptr inbounds %class.cmScriptGeneratorIndent, ptr %6, i32 0, i32 0
  store i32 %2, ptr %11, align 4
  store ptr %0, ptr %7, align 8
  store ptr %1, ptr %8, align 8
  store ptr %3, ptr %9, align 8
  store ptr %4, ptr %10, align 8
  %12 = load ptr, ptr %7, align 8
  %13 = call noundef zeroext i1 @_ZNKSt14_Function_base8_M_emptyEv(ptr noundef nonnull align 8 dereferenceable(24) %12)
  br i1 %13, label %14, label %15

14:                                               ; preds = %5
  call void @_ZSt25__throw_bad_function_callv() #12
  unreachable

15:                                               ; preds = %5
  %16 = getelementptr inbounds %"class.std::function.151", ptr %12, i32 0, i32 1
  %17 = load ptr, ptr %16, align 8
  %18 = getelementptr inbounds %"class.std::_Function_base", ptr %12, i32 0, i32 0
  %19 = load ptr, ptr %8, align 8
  %20 = load ptr, ptr %9, align 8
  %21 = load ptr, ptr %10, align 8
  call void %17(ptr noundef nonnull align 8 dereferenceable(16) %18, ptr noundef nonnull align 8 dereferenceable(8) %19, ptr noundef nonnull align 4 dereferenceable(4) %6, ptr noundef nonnull align 8 dereferenceable(32) %20, ptr noundef nonnull align 8 dereferenceable(32) %21)
  ret void
}

; Function Attrs: mustprogress uwtable
define linkonce_odr dso_local i32 @_ZNK23cmScriptGeneratorIndent4NextEi(ptr noundef nonnull align 4 dereferenceable(4) %0, i32 noundef %1) #4 comdat align 2 {
  %3 = alloca %class.cmScriptGeneratorIndent, align 4
  %4 = alloca ptr, align 8
  %5 = alloca i32, align 4
  store ptr %0, ptr %4, align 8
  store i32 %1, ptr %5, align 4
  %6 = load ptr, ptr %4, align 8
  %7 = getelementptr inbounds %class.cmScriptGeneratorIndent, ptr %6, i32 0, i32 0
  %8 = load i32, ptr %7, align 4
  %9 = load i32, ptr %5, align 4
  %10 = add nsw i32 %8, %9
  call void @_ZN23cmScriptGeneratorIndentC2Ei(ptr noundef nonnull align 4 dereferenceable(4) %3, i32 noundef %10)
  %11 = getelementptr inbounds %class.cmScriptGeneratorIndent, ptr %3, i32 0, i32 0
  %12 = load i32, ptr %11, align 4
  ret i32 %12
}

; Function Attrs: mustprogress uwtable
define dso_local void @_ZN18cmInstallGenerator8AddTweakERSo23cmScriptGeneratorIndentRKNSt7__cxx1112basic_stringIcSt11char_traitsIcESaIcEEES9_RKSt8functionIFvS0_S1_S9_S9_EE(ptr noundef nonnull align 8 dereferenceable(8) %0, i32 %1, ptr noundef nonnull align 8 dereferenceable(32) %2, ptr noundef nonnull align 8 dereferenceable(32) %3, ptr noundef nonnull align 8 dereferenceable(32) %4) #4 align 2 personality ptr @__gxx_personality_v0 {
  %6 = alloca %class.cmScriptGeneratorIndent, align 4
  %7 = alloca ptr, align 8
  %8 = alloca ptr, align 8
  %9 = alloca ptr, align 8
  %10 = alloca ptr, align 8
  %11 = alloca %"class.std::__cxx11::basic_ostringstream", align 8
  %12 = alloca %class.cmScriptGeneratorIndent, align 4
  %13 = alloca ptr, align 8
  %14 = alloca i32, align 4
  %15 = alloca %"class.std::__cxx11::basic_string", align 8
  %16 = alloca %class.cmScriptGeneratorIndent, align 4
  %17 = alloca %class.cmScriptGeneratorIndent, align 4
  %18 = alloca %class.cmScriptGeneratorIndent, align 4
  %19 = getelementptr inbounds %class.cmScriptGeneratorIndent, ptr %6, i32 0, i32 0
  store i32 %1, ptr %19, align 4
  store ptr %0, ptr %7, align 8
  store ptr %2, ptr %8, align 8
  store ptr %3, ptr %9, align 8
  store ptr %4, ptr %10, align 8
  call void @_ZNSt7__cxx1119basic_ostringstreamIcSt11char_traitsIcESaIcEEC1Ev(ptr noundef nonnull align 8 dereferenceable(112) %11)
  %20 = load ptr, ptr %10, align 8
  %21 = invoke i32 @_ZNK23cmScriptGeneratorIndent4NextEi(ptr noundef nonnull align 4 dereferenceable(4) %6, i32 noundef 2)
          to label %22 unwind label %65

22:                                               ; preds = %5
  %23 = getelementptr inbounds %class.cmScriptGeneratorIndent, ptr %12, i32 0, i32 0
  store i32 %21, ptr %23, align 4
  %24 = load ptr, ptr %8, align 8
  %25 = load ptr, ptr %9, align 8
  %26 = getelementptr inbounds %class.cmScriptGeneratorIndent, ptr %12, i32 0, i32 0
  %27 = load i32, ptr %26, align 4
  invoke void @_ZNKSt8functionIFvRSo23cmScriptGeneratorIndentRKNSt7__cxx1112basic_stringIcSt11char_traitsIcESaIcEEES9_EEclES0_S1_S9_S9_(ptr noundef nonnull align 8 dereferenceable(32) %20, ptr noundef nonnull align 8 dereferenceable(8) %11, i32 %27, ptr noundef nonnull align 8 dereferenceable(32) %24, ptr noundef nonnull align 8 dereferenceable(32) %25)
          to label %28 unwind label %65

28:                                               ; preds = %22
  invoke void @_ZNKSt7__cxx1119basic_ostringstreamIcSt11char_traitsIcESaIcEE3strEv(ptr dead_on_unwind writable sret(%"class.std::__cxx11::basic_string") align 8 %15, ptr noundef nonnull align 8 dereferenceable(112) %11)
          to label %29 unwind label %65

29:                                               ; preds = %28
  %30 = call noundef zeroext i1 @_ZNKSt7__cxx1112basic_stringIcSt11char_traitsIcESaIcEE5emptyEv(ptr noundef nonnull align 8 dereferenceable(32) %15) #3
  br i1 %30, label %73, label %31

31:                                               ; preds = %29
  %32 = load ptr, ptr %7, align 8
  call void @llvm.memcpy.p0.p0.i64(ptr align 4 %16, ptr align 4 %6, i64 4, i1 false)
  %33 = getelementptr inbounds %class.cmScriptGeneratorIndent, ptr %16, i32 0, i32 0
  %34 = load i32, ptr %33, align 4
  %35 = invoke noundef nonnull align 8 dereferenceable(8) ptr @_ZlsRSo23cmScriptGeneratorIndent(ptr noundef nonnull align 8 dereferenceable(8) %32, i32 %34)
          to label %36 unwind label %69

36:                                               ; preds = %31
  %37 = invoke noundef nonnull align 8 dereferenceable(8) ptr @_ZStlsISt11char_traitsIcEERSt13basic_ostreamIcT_ES5_PKc(ptr noundef nonnull align 8 dereferenceable(8) %35, ptr noundef @.str.53)
          to label %38 unwind label %69

38:                                               ; preds = %36
  %39 = load ptr, ptr %9, align 8
  %40 = invoke noundef nonnull align 8 dereferenceable(8) ptr @_ZStlsIcSt11char_traitsIcESaIcEERSt13basic_ostreamIT_T0_ES7_RKNSt7__cxx1112basic_stringIS4_S5_T1_EE(ptr noundef nonnull align 8 dereferenceable(8) %37, ptr noundef nonnull align 8 dereferenceable(32) %39)
          to label %41 unwind label %69

41:                                               ; preds = %38
  %42 = invoke noundef nonnull align 8 dereferenceable(8) ptr @_ZStlsISt11char_traitsIcEERSt13basic_ostreamIcT_ES5_PKc(ptr noundef nonnull align 8 dereferenceable(8) %40, ptr noundef @.str.54)
          to label %43 unwind label %69

43:                                               ; preds = %41
  call void @llvm.memcpy.p0.p0.i64(ptr align 4 %17, ptr align 4 %6, i64 4, i1 false)
  %44 = getelementptr inbounds %class.cmScriptGeneratorIndent, ptr %17, i32 0, i32 0
  %45 = load i32, ptr %44, align 4
  %46 = invoke noundef nonnull align 8 dereferenceable(8) ptr @_ZlsRSo23cmScriptGeneratorIndent(ptr noundef nonnull align 8 dereferenceable(8) %42, i32 %45)
          to label %47 unwind label %69

47:                                               ; preds = %43
  %48 = invoke noundef nonnull align 8 dereferenceable(8) ptr @_ZStlsISt11char_traitsIcEERSt13basic_ostreamIcT_ES5_PKc(ptr noundef nonnull align 8 dereferenceable(8) %46, ptr noundef @.str.55)
          to label %49 unwind label %69

49:                                               ; preds = %47
  %50 = load ptr, ptr %9, align 8
  %51 = invoke noundef nonnull align 8 dereferenceable(8) ptr @_ZStlsIcSt11char_traitsIcESaIcEERSt13basic_ostreamIT_T0_ES7_RKNSt7__cxx1112basic_stringIS4_S5_T1_EE(ptr noundef nonnull align 8 dereferenceable(8) %48, ptr noundef nonnull align 8 dereferenceable(32) %50)
          to label %52 unwind label %69

52:                                               ; preds = %49
  %53 = invoke noundef nonnull align 8 dereferenceable(8) ptr @_ZStlsISt11char_traitsIcEERSt13basic_ostreamIcT_ES5_PKc(ptr noundef nonnull align 8 dereferenceable(8) %51, ptr noundef @.str.12)
          to label %54 unwind label %69

54:                                               ; preds = %52
  %55 = load ptr, ptr %7, align 8
  %56 = invoke noundef nonnull align 8 dereferenceable(8) ptr @_ZStlsIcSt11char_traitsIcESaIcEERSt13basic_ostreamIT_T0_ES7_RKNSt7__cxx1112basic_stringIS4_S5_T1_EE(ptr noundef nonnull align 8 dereferenceable(8) %55, ptr noundef nonnull align 8 dereferenceable(32) %15)
          to label %57 unwind label %69

57:                                               ; preds = %54
  %58 = load ptr, ptr %7, align 8
  call void @llvm.memcpy.p0.p0.i64(ptr align 4 %18, ptr align 4 %6, i64 4, i1 false)
  %59 = getelementptr inbounds %class.cmScriptGeneratorIndent, ptr %18, i32 0, i32 0
  %60 = load i32, ptr %59, align 4
  %61 = invoke noundef nonnull align 8 dereferenceable(8) ptr @_ZlsRSo23cmScriptGeneratorIndent(ptr noundef nonnull align 8 dereferenceable(8) %58, i32 %60)
          to label %62 unwind label %69

62:                                               ; preds = %57
  %63 = invoke noundef nonnull align 8 dereferenceable(8) ptr @_ZStlsISt11char_traitsIcEERSt13basic_ostreamIcT_ES5_PKc(ptr noundef nonnull align 8 dereferenceable(8) %61, ptr noundef @.str.23)
          to label %64 unwind label %69

64:                                               ; preds = %62
  br label %73

65:                                               ; preds = %28, %22, %5
  %66 = landingpad { ptr, i32 }
          cleanup
  %67 = extractvalue { ptr, i32 } %66, 0
  store ptr %67, ptr %13, align 8
  %68 = extractvalue { ptr, i32 } %66, 1
  store i32 %68, ptr %14, align 4
  br label %74

69:                                               ; preds = %62, %57, %54, %52, %49, %47, %43, %41, %38, %36, %31
  %70 = landingpad { ptr, i32 }
          cleanup
  %71 = extractvalue { ptr, i32 } %70, 0
  store ptr %71, ptr %13, align 8
  %72 = extractvalue { ptr, i32 } %70, 1
  store i32 %72, ptr %14, align 4
  call void @_ZNSt7__cxx1112basic_stringIcSt11char_traitsIcESaIcEED1Ev(ptr noundef nonnull align 8 dereferenceable(32) %15) #3
  br label %74

73:                                               ; preds = %64, %29
  call void @_ZNSt7__cxx1112basic_stringIcSt11char_traitsIcESaIcEED1Ev(ptr noundef nonnull align 8 dereferenceable(32) %15) #3
  call void @_ZNSt7__cxx1119basic_ostringstreamIcSt11char_traitsIcESaIcEED1Ev(ptr noundef nonnull align 8 dereferenceable(112) %11) #3
  ret void

74:                                               ; preds = %69, %65
  call void @_ZNSt7__cxx1119basic_ostringstreamIcSt11char_traitsIcESaIcEED1Ev(ptr noundef nonnull align 8 dereferenceable(112) %11) #3
  br label %75

75:                                               ; preds = %74
  %76 = load ptr, ptr %13, align 8
  %77 = load i32, ptr %14, align 4
  %78 = insertvalue { ptr, i32 } poison, ptr %76, 0
  %79 = insertvalue { ptr, i32 } %78, i32 %77, 1
  resume { ptr, i32 } %79
}