; Function Attrs: mustprogress uwtable
define dso_local void @_ZN18cmInstallGenerator8AddTweakERSo23cmScriptGeneratorIndentRKNSt7__cxx1112basic_stringIcSt11char_traitsIcESaIcEEES9_RKSt8functionIFvS0_S1_S9_S9_EE(ptr noundef nonnull align 8 dereferenceable(8) %0, i32 %1, ptr noundef nonnull align 8 dereferenceable(32) %2, ptr noundef nonnull align 8 dereferenceable(32) %3, ptr noundef nonnull align 8 dereferenceable(32) %4) local_unnamed_addr #3 align 2 personality ptr @__gxx_personality_v0 {
  %6 = alloca %class.cmScriptGeneratorIndent, align 4
  %7 = alloca %"class.std::__cxx11::basic_ostringstream", align 8
  %8 = alloca %"class.std::__cxx11::basic_string", align 8
  call void @_ZNSt7__cxx1119basic_ostringstreamIcSt11char_traitsIcESaIcEEC1Ev(ptr noundef nonnull align 8 dereferenceable(112) %7)
  %9 = add nsw i32 %1, 2
  call void @llvm.lifetime.start.p0(i64 4, ptr nonnull %6)
  store i32 %9, ptr %6, align 4
  %10 = getelementptr inbounds i8, ptr %4, i64 16
  %11 = load ptr, ptr %10, align 8
  %.not.i.i = icmp eq ptr %11, null
  br i1 %.not.i.i, label %12, label %13

12:                                               ; preds = %5
  invoke void @_ZSt25__throw_bad_function_callv() #16
          to label %.noexc unwind label %42

.noexc:                                           ; preds = %12
  unreachable

13:                                               ; preds = %5
  %14 = getelementptr inbounds i8, ptr %4, i64 24
  %15 = load ptr, ptr %14, align 8
  invoke void %15(ptr noundef nonnull align 8 dereferenceable(16) %4, ptr noundef nonnull align 8 dereferenceable(8) %7, ptr noundef nonnull align 4 dereferenceable(4) %6, ptr noundef nonnull align 8 dereferenceable(32) %2, ptr noundef nonnull align 8 dereferenceable(32) %3)
          to label %16 unwind label %42

16:                                               ; preds = %13
  call void @llvm.lifetime.end.p0(i64 4, ptr nonnull %6)
  invoke void @_ZNKSt7__cxx1119basic_ostringstreamIcSt11char_traitsIcESaIcEE3strEv(ptr dead_on_unwind nonnull writable sret(%"class.std::__cxx11::basic_string") align 8 %8, ptr noundef nonnull align 8 dereferenceable(112) %7)
          to label %17 unwind label %42

17:                                               ; preds = %16
  %18 = call noundef zeroext i1 @_ZNKSt7__cxx1112basic_stringIcSt11char_traitsIcESaIcEE5emptyEv(ptr noundef nonnull align 8 dereferenceable(32) %8) #14
  br i1 %18, label %44, label %19

19:                                               ; preds = %17
  %20 = icmp sgt i32 %1, 0
  br i1 %20, label %.lr.ph.i.i, label %_ZlsRSo23cmScriptGeneratorIndent.exit

.lr.ph.i.i:                                       ; preds = %19, %.noexc15
  %.03.i.i = phi i32 [ %22, %.noexc15 ], [ 0, %19 ]
  %21 = invoke noundef nonnull align 8 dereferenceable(8) ptr @_ZStlsISt11char_traitsIcEERSt13basic_ostreamIcT_ES5_PKc(ptr noundef nonnull align 8 dereferenceable(8) %0, ptr noundef nonnull @.str.41)
          to label %.noexc15 unwind label %.loopexit.split-lp.loopexit.split-lp.loopexit

.noexc15:                                         ; preds = %.lr.ph.i.i
  %22 = add nuw nsw i32 %.03.i.i, 1
  %exitcond.not.i = icmp eq i32 %22, %1
  br i1 %exitcond.not.i, label %_ZlsRSo23cmScriptGeneratorIndent.exit, label %.lr.ph.i.i, !llvm.loop !8

_ZlsRSo23cmScriptGeneratorIndent.exit:            ; preds = %.noexc15, %19
  %23 = invoke noundef nonnull align 8 dereferenceable(8) ptr @_ZStlsISt11char_traitsIcEERSt13basic_ostreamIcT_ES5_PKc(ptr noundef nonnull align 8 dereferenceable(8) %0, ptr noundef nonnull @.str.53)
          to label %24 unwind label %.loopexit.split-lp.loopexit.split-lp.loopexit.split-lp

24:                                               ; preds = %_ZlsRSo23cmScriptGeneratorIndent.exit
  %25 = invoke noundef nonnull align 8 dereferenceable(8) ptr @_ZStlsIcSt11char_traitsIcESaIcEERSt13basic_ostreamIT_T0_ES7_RKNSt7__cxx1112basic_stringIS4_S5_T1_EE(ptr noundef nonnull align 8 dereferenceable(8) %23, ptr noundef nonnull align 8 dereferenceable(32) %3)
          to label %26 unwind label %.loopexit.split-lp.loopexit.split-lp.loopexit.split-lp

26:                                               ; preds = %24
  %27 = invoke noundef nonnull align 8 dereferenceable(8) ptr @_ZStlsISt11char_traitsIcEERSt13basic_ostreamIcT_ES5_PKc(ptr noundef nonnull align 8 dereferenceable(8) %25, ptr noundef nonnull @.str.54)
          to label %28 unwind label %.loopexit.split-lp.loopexit.split-lp.loopexit.split-lp

28:                                               ; preds = %26
  br i1 %20, label %.lr.ph.i.i16, label %_ZlsRSo23cmScriptGeneratorIndent.exit20

.lr.ph.i.i16:                                     ; preds = %28, %.noexc19
  %.03.i.i17 = phi i32 [ %30, %.noexc19 ], [ 0, %28 ]
  %29 = invoke noundef nonnull align 8 dereferenceable(8) ptr @_ZStlsISt11char_traitsIcEERSt13basic_ostreamIcT_ES5_PKc(ptr noundef nonnull align 8 dereferenceable(8) %27, ptr noundef nonnull @.str.41)
          to label %.noexc19 unwind label %.loopexit.split-lp.loopexit

.noexc19:                                         ; preds = %.lr.ph.i.i16
  %30 = add nuw nsw i32 %.03.i.i17, 1
  %exitcond.not.i18 = icmp eq i32 %30, %1
  br i1 %exitcond.not.i18, label %_ZlsRSo23cmScriptGeneratorIndent.exit20, label %.lr.ph.i.i16, !llvm.loop !8

_ZlsRSo23cmScriptGeneratorIndent.exit20:          ; preds = %.noexc19, %28
  %31 = invoke noundef nonnull align 8 dereferenceable(8) ptr @_ZStlsISt11char_traitsIcEERSt13basic_ostreamIcT_ES5_PKc(ptr noundef nonnull align 8 dereferenceable(8) %27, ptr noundef nonnull @.str.55)
          to label %32 unwind label %.loopexit.split-lp.loopexit.split-lp.loopexit.split-lp

32:                                               ; preds = %_ZlsRSo23cmScriptGeneratorIndent.exit20
  %33 = invoke noundef nonnull align 8 dereferenceable(8) ptr @_ZStlsIcSt11char_traitsIcESaIcEERSt13basic_ostreamIT_T0_ES7_RKNSt7__cxx1112basic_stringIS4_S5_T1_EE(ptr noundef nonnull align 8 dereferenceable(8) %31, ptr noundef nonnull align 8 dereferenceable(32) %3)
          to label %34 unwind label %.loopexit.split-lp.loopexit.split-lp.loopexit.split-lp

34:                                               ; preds = %32
  %35 = invoke noundef nonnull align 8 dereferenceable(8) ptr @_ZStlsISt11char_traitsIcEERSt13basic_ostreamIcT_ES5_PKc(ptr noundef nonnull align 8 dereferenceable(8) %33, ptr noundef nonnull @.str.12)
          to label %36 unwind label %.loopexit.split-lp.loopexit.split-lp.loopexit.split-lp

36:                                               ; preds = %34
  %37 = invoke noundef nonnull align 8 dereferenceable(8) ptr @_ZStlsIcSt11char_traitsIcESaIcEERSt13basic_ostreamIT_T0_ES7_RKNSt7__cxx1112basic_stringIS4_S5_T1_EE(ptr noundef nonnull align 8 dereferenceable(8) %0, ptr noundef nonnull align 8 dereferenceable(32) %8)
          to label %38 unwind label %.loopexit.split-lp.loopexit.split-lp.loopexit.split-lp

38:                                               ; preds = %36
  br i1 %20, label %.lr.ph.i.i21, label %_ZlsRSo23cmScriptGeneratorIndent.exit25

.lr.ph.i.i21:                                     ; preds = %38, %.noexc24
  %.03.i.i22 = phi i32 [ %40, %.noexc24 ], [ 0, %38 ]
  %39 = invoke noundef nonnull align 8 dereferenceable(8) ptr @_ZStlsISt11char_traitsIcEERSt13basic_ostreamIcT_ES5_PKc(ptr noundef nonnull align 8 dereferenceable(8) %0, ptr noundef nonnull @.str.41)
          to label %.noexc24 unwind label %.loopexit

.noexc24:                                         ; preds = %.lr.ph.i.i21
  %40 = add nuw nsw i32 %.03.i.i22, 1
  %exitcond.not.i23 = icmp eq i32 %40, %1
  br i1 %exitcond.not.i23, label %_ZlsRSo23cmScriptGeneratorIndent.exit25, label %.lr.ph.i.i21, !llvm.loop !8

_ZlsRSo23cmScriptGeneratorIndent.exit25:          ; preds = %.noexc24, %38
  %41 = invoke noundef nonnull align 8 dereferenceable(8) ptr @_ZStlsISt11char_traitsIcEERSt13basic_ostreamIcT_ES5_PKc(ptr noundef nonnull align 8 dereferenceable(8) %0, ptr noundef nonnull @.str.23)
          to label %44 unwind label %.loopexit.split-lp.loopexit.split-lp.loopexit.split-lp

42:                                               ; preds = %13, %12, %16
  %43 = landingpad { ptr, i32 }
          cleanup
  br label %45

.loopexit:                                        ; preds = %.lr.ph.i.i21
  %lpad.loopexit = landingpad { ptr, i32 }
          cleanup
  br label %.loopexit.split-lp

.loopexit.split-lp.loopexit:                      ; preds = %.lr.ph.i.i16
  %lpad.loopexit29 = landingpad { ptr, i32 }
          cleanup
  br label %.loopexit.split-lp

.loopexit.split-lp.loopexit.split-lp.loopexit:    ; preds = %.lr.ph.i.i
  %lpad.loopexit32 = landingpad { ptr, i32 }
          cleanup
  br label %.loopexit.split-lp

.loopexit.split-lp.loopexit.split-lp.loopexit.split-lp: ; preds = %_ZlsRSo23cmScriptGeneratorIndent.exit, %24, %26, %_ZlsRSo23cmScriptGeneratorIndent.exit20, %32, %34, %36, %_ZlsRSo23cmScriptGeneratorIndent.exit25
  %lpad.loopexit.split-lp = landingpad { ptr, i32 }
          cleanup
  br label %.loopexit.split-lp

.loopexit.split-lp:                               ; preds = %.loopexit.split-lp.loopexit, %.loopexit.split-lp.loopexit.split-lp.loopexit.split-lp, %.loopexit.split-lp.loopexit.split-lp.loopexit, %.loopexit
  %lpad.phi = phi { ptr, i32 } [ %lpad.loopexit, %.loopexit ], [ %lpad.loopexit29, %.loopexit.split-lp.loopexit ], [ %lpad.loopexit32, %.loopexit.split-lp.loopexit.split-lp.loopexit ], [ %lpad.loopexit.split-lp, %.loopexit.split-lp.loopexit.split-lp.loopexit.split-lp ]
  call void @_ZNSt7__cxx1112basic_stringIcSt11char_traitsIcESaIcEED1Ev(ptr noundef nonnull align 8 dereferenceable(32) %8) #14
  br label %45

44:                                               ; preds = %_ZlsRSo23cmScriptGeneratorIndent.exit25, %17
  call void @_ZNSt7__cxx1112basic_stringIcSt11char_traitsIcESaIcEED1Ev(ptr noundef nonnull align 8 dereferenceable(32) %8) #14
  call void @_ZNSt7__cxx1119basic_ostringstreamIcSt11char_traitsIcESaIcEED1Ev(ptr noundef nonnull align 8 dereferenceable(112) %7) #14
  ret void

45:                                               ; preds = %.loopexit.split-lp, %42
  %.pn = phi { ptr, i32 } [ %lpad.phi, %.loopexit.split-lp ], [ %43, %42 ]
  call void @_ZNSt7__cxx1119basic_ostringstreamIcSt11char_traitsIcESaIcEED1Ev(ptr noundef nonnull align 8 dereferenceable(112) %7) #14
  resume { ptr, i32 } %.pn
}